; Function Attrs: mustprogress uwtable
define internal void @_ZN9grpc_core12_GLOBAL__N_120Chttp2ServerListener16ActiveConnection16HandshakingState17OnReceiveSettingsEPvN4absl12lts_202308026StatusE(ptr noundef %arg, ptr nocapture readnone %0) #3 align 2 personality ptr @__gxx_personality_v0 {
entry:
  %connection_ = getelementptr inbounds i8, ptr %arg, i64 16
  %connection_.val6 = load ptr, ptr %connection_, align 8
  %mu_ = getelementptr inbounds i8, ptr %connection_.val6, i64 24
  tail call void @_ZN4absl12lts_202308025Mutex4LockEv(ptr noundef nonnull align 8 dereferenceable(8) %mu_)
  %_M_engaged.i.i = getelementptr inbounds i8, ptr %arg, i64 72
  %1 = load i8, ptr %_M_engaged.i.i, align 8
  %2 = and i8 %1, 1
  %tobool.i.i.not = icmp eq i8 %2, 0
  br i1 %tobool.i.i.not, label %if.end, label %if.then

if.then:                                          ; preds = %entry
  %timer_handle_ = getelementptr inbounds i8, ptr %arg, i64 56
  %connection_.val = load ptr, ptr %connection_, align 8
  %event_engine_ = getelementptr inbounds i8, ptr %connection_.val, i64 104
  %3 = load ptr, ptr %event_engine_, align 8
  %agg.tmp.sroa.0.0.copyload = load i64, ptr %timer_handle_, align 8
  %agg.tmp.sroa.2.0.call5.sroa_idx = getelementptr inbounds i8, ptr %arg, i64 64
  %agg.tmp.sroa.2.0.copyload = load i64, ptr %agg.tmp.sroa.2.0.call5.sroa_idx, align 8
  %vtable = load ptr, ptr %3, align 8
  %vfn = getelementptr inbounds i8, ptr %vtable, i64 88
  %4 = load ptr, ptr %vfn, align 8
  %call6 = invoke noundef zeroext i1 %4(ptr noundef nonnull align 8 dereferenceable(24) %3, i64 %agg.tmp.sroa.0.0.copyload, i64 %agg.tmp.sroa.2.0.copyload)
          to label %invoke.cont unwind label %lpad

invoke.cont:                                      ; preds = %if.then
  %5 = load i8, ptr %_M_engaged.i.i, align 8
  %6 = and i8 %5, 1
  %tobool.not.i.i.i = icmp eq i8 %6, 0
  br i1 %tobool.not.i.i.i, label %if.end, label %if.then.i.i.i

if.then.i.i.i:                                    ; preds = %invoke.cont
  store i8 0, ptr %_M_engaged.i.i, align 8
  br label %if.end

lpad:                                             ; preds = %if.then
  %7 = landingpad { ptr, i32 }
          cleanup
  invoke void @_ZN4absl12lts_202308025Mutex6UnlockEv(ptr noundef nonnull align 8 dereferenceable(8) %mu_)
          to label %_ZN4absl12lts_202308029MutexLockD2Ev.exit unwind label %terminate.lpad.i

terminate.lpad.i:                                 ; preds = %lpad
  %8 = landingpad { ptr, i32 }
          catch ptr null
  %9 = extractvalue { ptr, i32 } %8, 0
  tail call void @__clang_call_terminate(ptr %9) #24
  unreachable

_ZN4absl12lts_202308029MutexLockD2Ev.exit:        ; preds = %lpad
  resume { ptr, i32 } %7

if.end:                                           ; preds = %if.then.i.i.i, %invoke.cont, %entry
  invoke void @_ZN4absl12lts_202308025Mutex6UnlockEv(ptr noundef nonnull align 8 dereferenceable(8) %mu_)
          to label %_ZN4absl12lts_202308029MutexLockD2Ev.exit8 unwind label %terminate.lpad.i7

terminate.lpad.i7:                                ; preds = %if.end
  %10 = landingpad { ptr, i32 }
          catch ptr null
  %11 = extractvalue { ptr, i32 } %10, 0
  tail call void @__clang_call_terminate(ptr %11) #24
  unreachable

_ZN4absl12lts_202308029MutexLockD2Ev.exit8:       ; preds = %if.end
  %refs_.i = getelementptr inbounds i8, ptr %arg, i64 8
  %12 = atomicrmw sub ptr %refs_.i, i64 1 acq_rel, align 8
  %cmp.i.i = icmp eq i64 %12, 1
  br i1 %cmp.i.i, label %if.then.i, label %_ZN9grpc_core20InternallyRefCountedINS_12_GLOBAL__N_120Chttp2ServerListener16ActiveConnection16HandshakingStateENS_11UnrefDeleteEE5UnrefEv.exit

if.then.i:                                        ; preds = %_ZN4absl12lts_202308029MutexLockD2Ev.exit8
  %vtable.i.i = load ptr, ptr %arg, align 8
  %vfn.i.i = getelementptr inbounds i8, ptr %vtable.i.i, i64 16
  %13 = load ptr, ptr %vfn.i.i, align 8
  tail call void %13(ptr noundef nonnull align 8 dereferenceable(120) %arg) #25
  br label %_ZN9grpc_core20InternallyRefCountedINS_12_GLOBAL__N_120Chttp2ServerListener16ActiveConnection16HandshakingStateENS_11UnrefDeleteEE5UnrefEv.exit

_ZN9grpc_core20InternallyRefCountedINS_12_GLOBAL__N_120Chttp2ServerListener16ActiveConnection16HandshakingStateENS_11UnrefDeleteEE5UnrefEv.exit: ; preds = %_ZN4absl12lts_202308029MutexLockD2Ev.exit8, %if.then.i
  ret void
}